target datalayout = "e-m:e-p270:32:32-p271:32:32-p272:64:64-i64:64-i128:128-f80:128-n8:16:32:64-S128"
target triple = "x86_64-pc-linux-gnu"

%struct.Hop_Obj_t_ = type { %union.anon, %union.anon.0, ptr, ptr, i32, i32 }
%union.anon = type { ptr }
%union.anon.0 = type { ptr }
%struct.Vec_Ptr_t_ = type { i32, i32, ptr }
%struct.Hop_Man_t_ = type { ptr, ptr, ptr, ptr, %struct.Hop_Obj_t_, [6 x i32], i32, i32, ptr, i32, ptr, i32, i32, i32, ptr, ptr, ptr, i64, i64 }

; Function Attrs: inlinehint nounwind uwtable
define internal ptr @Hop_Regular(ptr noundef %0) #1 {
  %2 = alloca ptr, align 8
  store ptr %0, ptr %2, align 8, !tbaa !3
  %3 = load ptr, ptr %2, align 8, !tbaa !3
  %4 = ptrtoint ptr %3 to i64
  %5 = and i64 %4, -2
  %6 = inttoptr i64 %5 to ptr
  ret ptr %6
}

; Function Attrs: inlinehint nounwind uwtable
define internal void @Vec_PtrFree(ptr noundef %0) #1 {
  %2 = alloca ptr, align 8
  store ptr %0, ptr %2, align 8, !tbaa !8
  %3 = load ptr, ptr %2, align 8, !tbaa !8
  %4 = getelementptr inbounds nuw %struct.Vec_Ptr_t_, ptr %3, i32 0, i32 2
  %5 = load ptr, ptr %4, align 8, !tbaa !18
  %6 = icmp ne ptr %5, null
  br i1 %6, label %7, label %13

7:                                                ; preds = %1
  %8 = load ptr, ptr %2, align 8, !tbaa !8
  %9 = getelementptr inbounds nuw %struct.Vec_Ptr_t_, ptr %8, i32 0, i32 2
  %10 = load ptr, ptr %9, align 8, !tbaa !18
  call void @free(ptr noundef %10) #7
  %11 = load ptr, ptr %2, align 8, !tbaa !8
  %12 = getelementptr inbounds nuw %struct.Vec_Ptr_t_, ptr %11, i32 0, i32 2
  store ptr null, ptr %12, align 8, !tbaa !18
  br label %14

13:                                               ; preds = %1
  br label %14

14:                                               ; preds = %13, %7
  %15 = load ptr, ptr %2, align 8, !tbaa !8
  %16 = icmp ne ptr %15, null
  br i1 %16, label %17, label %19

17:                                               ; preds = %14
  %18 = load ptr, ptr %2, align 8, !tbaa !8
  call void @free(ptr noundef %18) #7
  store ptr null, ptr %2, align 8, !tbaa !8
  br label %20

19:                                               ; preds = %14
  br label %20

20:                                               ; preds = %19, %17
  ret void
}

; Function Attrs: inlinehint nounwind uwtable
define internal i32 @Abc_MaxInt(i32 noundef %0, i32 noundef %1) #1 {
  %3 = alloca i32, align 4
  %4 = alloca i32, align 4
  store i32 %0, ptr %3, align 4, !tbaa !21
  store i32 %1, ptr %4, align 4, !tbaa !21
  %5 = load i32, ptr %3, align 4, !tbaa !21
  %6 = load i32, ptr %4, align 4, !tbaa !21
  %7 = icmp sgt i32 %5, %6
  br i1 %7, label %8, label %10

8:                                                ; preds = %2
  %9 = load i32, ptr %3, align 4, !tbaa !21
  br label %12

10:                                               ; preds = %2
  %11 = load i32, ptr %4, align 4, !tbaa !21
  br label %12

12:                                               ; preds = %10, %8
  %13 = phi i32 [ %9, %8 ], [ %11, %10 ]
  ret i32 %13
}

; Function Attrs: inlinehint nounwind uwtable
define internal i32 @Hop_ObjIsExor(ptr noundef %0) #1 {
  %2 = alloca ptr, align 8
  store ptr %0, ptr %2, align 8, !tbaa !3
  %3 = load ptr, ptr %2, align 8, !tbaa !3
  %4 = getelementptr inbounds nuw %struct.Hop_Obj_t_, ptr %3, i32 0, i32 4
  %5 = load i32, ptr %4, align 8
  %6 = and i32 %5, 7
  %7 = icmp eq i32 %6, 5
  %8 = zext i1 %7 to i32
  ret i32 %8
}

; Function Attrs: inlinehint nounwind uwtable
define internal ptr @Hop_ObjFanin1(ptr noundef %0) #1 {
  %2 = alloca ptr, align 8
  store ptr %0, ptr %2, align 8, !tbaa !3
  %3 = load ptr, ptr %2, align 8, !tbaa !3
  %4 = getelementptr inbounds nuw %struct.Hop_Obj_t_, ptr %3, i32 0, i32 3
  %5 = load ptr, ptr %4, align 8, !tbaa !13
  %6 = call ptr @Hop_Regular(ptr noundef %5)
  ret ptr %6
}

; Function Attrs: inlinehint nounwind uwtable
define internal ptr @Hop_ObjFanin0(ptr noundef %0) #1 {
  %2 = alloca ptr, align 8
  store ptr %0, ptr %2, align 8, !tbaa !3
  %3 = load ptr, ptr %2, align 8, !tbaa !3
  %4 = getelementptr inbounds nuw %struct.Hop_Obj_t_, ptr %3, i32 0, i32 2
  %5 = load ptr, ptr %4, align 8, !tbaa !10
  %6 = call ptr @Hop_Regular(ptr noundef %5)
  ret ptr %6
}

; Function Attrs: inlinehint nounwind uwtable
define internal ptr @Vec_PtrEntry(ptr noundef %0, i32 noundef %1) #1 {
  %3 = alloca ptr, align 8
  %4 = alloca i32, align 4
  store ptr %0, ptr %3, align 8, !tbaa !8
  store i32 %1, ptr %4, align 4, !tbaa !21
  %5 = load ptr, ptr %3, align 8, !tbaa !8
  %6 = getelementptr inbounds nuw %struct.Vec_Ptr_t_, ptr %5, i32 0, i32 2
  %7 = load ptr, ptr %6, align 8, !tbaa !18
  %8 = load i32, ptr %4, align 4, !tbaa !21
  %9 = sext i32 %8 to i64
  %10 = getelementptr inbounds ptr, ptr %7, i64 %9
  %11 = load ptr, ptr %10, align 8, !tbaa !14
  ret ptr %11
}

; Function Attrs: inlinehint nounwind uwtable
define internal i32 @Vec_PtrSize(ptr noundef %0) #1 {
  %2 = alloca ptr, align 8
  store ptr %0, ptr %2, align 8, !tbaa !8
  %3 = load ptr, ptr %2, align 8, !tbaa !8
  %4 = getelementptr inbounds nuw %struct.Vec_Ptr_t_, ptr %3, i32 0, i32 1
  %5 = load i32, ptr %4, align 4, !tbaa !15
  ret i32 %5
}

; Function Attrs: inlinehint nounwind uwtable
define internal ptr @Hop_ManConst1(ptr noundef %0) #1 {
  %2 = alloca ptr, align 8
  store ptr %0, ptr %2, align 8, !tbaa !19
  %3 = load ptr, ptr %2, align 8, !tbaa !19
  %4 = getelementptr inbounds nuw %struct.Hop_Man_t_, ptr %3, i32 0, i32 3
  %5 = load ptr, ptr %4, align 8, !tbaa !37
  ret ptr %5
}

; Function Attrs: nounwind uwtable
define i32 @Hop_ManCountLevels(ptr noundef %0) #0 {
  %2 = alloca ptr, align 8
  %3 = alloca ptr, align 8
  %4 = alloca ptr, align 8
  %5 = alloca i32, align 4
  %6 = alloca i32, align 4
  %7 = alloca i32, align 4
  %8 = alloca i32, align 4
  store ptr %0, ptr %2, align 8, !tbaa !19
  call void @llvm.lifetime.start.p0(i64 8, ptr %3) #7
  call void @llvm.lifetime.start.p0(i64 8, ptr %4) #7
  call void @llvm.lifetime.start.p0(i64 4, ptr %5) #7
  call void @llvm.lifetime.start.p0(i64 4, ptr %6) #7
  call void @llvm.lifetime.start.p0(i64 4, ptr %7) #7
  call void @llvm.lifetime.start.p0(i64 4, ptr %8) #7
  %9 = load ptr, ptr %2, align 8, !tbaa !19
  %10 = call ptr @Hop_ManConst1(ptr noundef %9)
  %11 = getelementptr inbounds nuw %struct.Hop_Obj_t_, ptr %10, i32 0, i32 0
  store ptr null, ptr %11, align 8, !tbaa !31
  store i32 0, ptr %5, align 4, !tbaa !21
  br label %12

12:                                               ; preds = %30, %1
  %13 = load i32, ptr %5, align 4, !tbaa !21
  %14 = load ptr, ptr %2, align 8, !tbaa !19
  %15 = getelementptr inbounds nuw %struct.Hop_Man_t_, ptr %14, i32 0, i32 0
  %16 = load ptr, ptr %15, align 8, !tbaa !32
  %17 = call i32 @Vec_PtrSize(ptr noundef %16)
  %18 = icmp slt i32 %13, %17
  br i1 %18, label %19, label %25

19:                                               ; preds = %12
  %20 = load ptr, ptr %2, align 8, !tbaa !19
  %21 = getelementptr inbounds nuw %struct.Hop_Man_t_, ptr %20, i32 0, i32 0
  %22 = load ptr, ptr %21, align 8, !tbaa !32
  %23 = load i32, ptr %5, align 4, !tbaa !21
  %24 = call ptr @Vec_PtrEntry(ptr noundef %22, i32 noundef %23)
  store ptr %24, ptr %4, align 8, !tbaa !3
  br label %25

25:                                               ; preds = %19, %12
  %26 = phi i1 [ false, %12 ], [ true, %19 ]
  br i1 %26, label %27, label %33

27:                                               ; preds = %25
  %28 = load ptr, ptr %4, align 8, !tbaa !3
  %29 = getelementptr inbounds nuw %struct.Hop_Obj_t_, ptr %28, i32 0, i32 0
  store ptr null, ptr %29, align 8, !tbaa !31
  br label %30

30:                                               ; preds = %27
  %31 = load i32, ptr %5, align 4, !tbaa !21
  %32 = add nsw i32 %31, 1
  store i32 %32, ptr %5, align 4, !tbaa !21
  br label %12, !llvm.loop !33

33:                                               ; preds = %25
  %34 = load ptr, ptr %2, align 8, !tbaa !19
  %35 = call ptr @Hop_ManDfs(ptr noundef %34)
  store ptr %35, ptr %3, align 8, !tbaa !8
  store i32 0, ptr %5, align 4, !tbaa !21
  br label %36

36:                                               ; preds = %71, %33
  %37 = load i32, ptr %5, align 4, !tbaa !21
  %38 = load ptr, ptr %3, align 8, !tbaa !8
  %39 = call i32 @Vec_PtrSize(ptr noundef %38)
  %40 = icmp slt i32 %37, %39
  br i1 %40, label %41, label %45

41:                                               ; preds = %36
  %42 = load ptr, ptr %3, align 8, !tbaa !8
  %43 = load i32, ptr %5, align 4, !tbaa !21
  %44 = call ptr @Vec_PtrEntry(ptr noundef %42, i32 noundef %43)
  store ptr %44, ptr %4, align 8, !tbaa !3
  br label %45

45:                                               ; preds = %41, %36
  %46 = phi i1 [ false, %36 ], [ true, %41 ]
  br i1 %46, label %47, label %74

47:                                               ; preds = %45
  %48 = load ptr, ptr %4, align 8, !tbaa !3
  %49 = call ptr @Hop_ObjFanin0(ptr noundef %48)
  %50 = getelementptr inbounds nuw %struct.Hop_Obj_t_, ptr %49, i32 0, i32 0
  %51 = load ptr, ptr %50, align 8, !tbaa !31
  %52 = ptrtoint ptr %51 to i64
  %53 = trunc i64 %52 to i32
  store i32 %53, ptr %7, align 4, !tbaa !21
  %54 = load ptr, ptr %4, align 8, !tbaa !3
  %55 = call ptr @Hop_ObjFanin1(ptr noundef %54)
  %56 = getelementptr inbounds nuw %struct.Hop_Obj_t_, ptr %55, i32 0, i32 0
  %57 = load ptr, ptr %56, align 8, !tbaa !31
  %58 = ptrtoint ptr %57 to i64
  %59 = trunc i64 %58 to i32
  store i32 %59, ptr %8, align 4, !tbaa !21
  %60 = load ptr, ptr %4, align 8, !tbaa !3
  %61 = call i32 @Hop_ObjIsExor(ptr noundef %60)
  %62 = add nsw i32 1, %61
  %63 = load i32, ptr %7, align 4, !tbaa !21
  %64 = load i32, ptr %8, align 4, !tbaa !21
  %65 = call i32 @Abc_MaxInt(i32 noundef %63, i32 noundef %64)
  %66 = add nsw i32 %62, %65
  %67 = sext i32 %66 to i64
  %68 = inttoptr i64 %67 to ptr
  %69 = load ptr, ptr %4, align 8, !tbaa !3
  %70 = getelementptr inbounds nuw %struct.Hop_Obj_t_, ptr %69, i32 0, i32 0
  store ptr %68, ptr %70, align 8, !tbaa !31
  br label %71

71:                                               ; preds = %47
  %72 = load i32, ptr %5, align 4, !tbaa !21
  %73 = add nsw i32 %72, 1
  store i32 %73, ptr %5, align 4, !tbaa !21
  br label %36, !llvm.loop !34

74:                                               ; preds = %45
  %75 = load ptr, ptr %3, align 8, !tbaa !8
  call void @Vec_PtrFree(ptr noundef %75)
  store i32 0, ptr %6, align 4, !tbaa !21
  store i32 0, ptr %5, align 4, !tbaa !21
  br label %76

76:                                               ; preds = %100, %74
  %77 = load i32, ptr %5, align 4, !tbaa !21
  %78 = load ptr, ptr %2, align 8, !tbaa !19
  %79 = getelementptr inbounds nuw %struct.Hop_Man_t_, ptr %78, i32 0, i32 1
  %80 = load ptr, ptr %79, align 8, !tbaa !35
  %81 = call i32 @Vec_PtrSize(ptr noundef %80)
  %82 = icmp slt i32 %77, %81
  br i1 %82, label %83, label %89

83:                                               ; preds = %76
  %84 = load ptr, ptr %2, align 8, !tbaa !19
  %85 = getelementptr inbounds nuw %struct.Hop_Man_t_, ptr %84, i32 0, i32 1
  %86 = load ptr, ptr %85, align 8, !tbaa !35
  %87 = load i32, ptr %5, align 4, !tbaa !21
  %88 = call ptr @Vec_PtrEntry(ptr noundef %86, i32 noundef %87)
  store ptr %88, ptr %4, align 8, !tbaa !3
  br label %89

89:                                               ; preds = %83, %76
  %90 = phi i1 [ false, %76 ], [ true, %83 ]
  br i1 %90, label %91, label %103

91:                                               ; preds = %89
  %92 = load i32, ptr %6, align 4, !tbaa !21
  %93 = load ptr, ptr %4, align 8, !tbaa !3
  %94 = call ptr @Hop_ObjFanin0(ptr noundef %93)
  %95 = getelementptr inbounds nuw %struct.Hop_Obj_t_, ptr %94, i32 0, i32 0
  %96 = load ptr, ptr %95, align 8, !tbaa !31
  %97 = ptrtoint ptr %96 to i64
  %98 = trunc i64 %97 to i32
  %99 = call i32 @Abc_MaxInt(i32 noundef %92, i32 noundef %98)
  store i32 %99, ptr %6, align 4, !tbaa !21
  br label %100

100:                                              ; preds = %91
  %101 = load i32, ptr %5, align 4, !tbaa !21
  %102 = add nsw i32 %101, 1
  store i32 %102, ptr %5, align 4, !tbaa !21
  br label %76, !llvm.loop !36

103:                                              ; preds = %89
  %104 = load i32, ptr %6, align 4, !tbaa !21
  call void @llvm.lifetime.end.p0(i64 4, ptr %8) #7
  call void @llvm.lifetime.end.p0(i64 4, ptr %7) #7
  call void @llvm.lifetime.end.p0(i64 4, ptr %6) #7
  call void @llvm.lifetime.end.p0(i64 4, ptr %5) #7
  call void @llvm.lifetime.end.p0(i64 8, ptr %4) #7
  call void @llvm.lifetime.end.p0(i64 8, ptr %3) #7
  ret i32 %104
}