; Function Attrs: nounwind uwtable
define range(i32 0, -2147483648) i32 @Hop_ManCountLevels(ptr noundef readonly captures(none) %0) local_unnamed_addr #0 {
  %2 = getelementptr i8, ptr %0, i64 24
  %.val40 = load ptr, ptr %2, align 8, !tbaa !28
  store ptr null, ptr %.val40, align 8, !tbaa !29
  %3 = load ptr, ptr %0, align 8, !tbaa !30
  %4 = getelementptr i8, ptr %3, i64 4
  %.val3642 = load i32, ptr %4, align 4, !tbaa !11
  %5 = icmp sgt i32 %.val3642, 0
  br i1 %5, label %.lr.ph, label %.critedge

.lr.ph:                                           ; preds = %1, %.lr.ph
  %indvars.iv = phi i64 [ %indvars.iv.next, %.lr.ph ], [ 0, %1 ]
  %6 = phi ptr [ %10, %.lr.ph ], [ %3, %1 ]
  %7 = getelementptr i8, ptr %6, i64 8
  %.val39 = load ptr, ptr %7, align 8, !tbaa !14
  %8 = getelementptr inbounds nuw ptr, ptr %.val39, i64 %indvars.iv
  %9 = load ptr, ptr %8, align 8, !tbaa !15
  store ptr null, ptr %9, align 8, !tbaa !29
  %indvars.iv.next = add nuw nsw i64 %indvars.iv, 1
  %10 = load ptr, ptr %0, align 8, !tbaa !30
  %11 = getelementptr i8, ptr %10, i64 4
  %.val36 = load i32, ptr %11, align 4, !tbaa !11
  %12 = sext i32 %.val36 to i64
  %13 = icmp slt i64 %indvars.iv.next, %12
  br i1 %13, label %.lr.ph, label %.critedge, !llvm.loop !31

.critedge:                                        ; preds = %.lr.ph, %1
  %14 = tail call ptr @Hop_ManDfs(ptr noundef nonnull %0)
  %15 = getelementptr i8, ptr %14, i64 4
  %.val3544 = load i32, ptr %15, align 4, !tbaa !11
  %16 = icmp sgt i32 %.val3544, 0
  br i1 %16, label %.lr.ph46, label %.critedge2

.lr.ph46:                                         ; preds = %.critedge
  %17 = getelementptr i8, ptr %14, i64 8
  br label %18

18:                                               ; preds = %.lr.ph46, %18
  %indvars.iv51 = phi i64 [ 0, %.lr.ph46 ], [ %indvars.iv.next52, %18 ]
  %.val38 = load ptr, ptr %17, align 8, !tbaa !14
  %19 = getelementptr inbounds nuw ptr, ptr %.val38, i64 %indvars.iv51
  %20 = load ptr, ptr %19, align 8, !tbaa !15
  %21 = getelementptr i8, ptr %20, i64 16
  %.val32 = load ptr, ptr %21, align 8, !tbaa !3
  %22 = ptrtoint ptr %.val32 to i64
  %23 = and i64 %22, -2
  %24 = inttoptr i64 %23 to ptr
  %25 = load ptr, ptr %24, align 8, !tbaa !29
  %26 = ptrtoint ptr %25 to i64
  %27 = trunc i64 %26 to i32
  %28 = getelementptr i8, ptr %20, i64 24
  %.val33 = load ptr, ptr %28, align 8, !tbaa !10
  %29 = ptrtoint ptr %.val33 to i64
  %30 = and i64 %29, -2
  %31 = inttoptr i64 %30 to ptr
  %32 = load ptr, ptr %31, align 8, !tbaa !29
  %33 = ptrtoint ptr %32 to i64
  %34 = trunc i64 %33 to i32
  %35 = getelementptr i8, ptr %20, i64 32
  %.val41 = load i32, ptr %35, align 8
  %36 = and i32 %.val41, 7
  %37 = icmp eq i32 %36, 5
  %38 = select i1 %37, i32 2, i32 1
  %39 = tail call noundef i32 @llvm.smax.i32(i32 %27, i32 %34)
  %40 = add nsw i32 %38, %39
  %41 = sext i32 %40 to i64
  %42 = inttoptr i64 %41 to ptr
  store ptr %42, ptr %20, align 8, !tbaa !29
  %indvars.iv.next52 = add nuw nsw i64 %indvars.iv51, 1
  %.val35 = load i32, ptr %15, align 4, !tbaa !11
  %43 = sext i32 %.val35 to i64
  %44 = icmp slt i64 %indvars.iv.next52, %43
  br i1 %44, label %18, label %.critedge2, !llvm.loop !32

.critedge2:                                       ; preds = %18, %.critedge
  %45 = getelementptr inbounds nuw i8, ptr %14, i64 8
  %46 = load ptr, ptr %45, align 8, !tbaa !14
  %.not.i = icmp eq ptr %46, null
  br i1 %.not.i, label %Vec_PtrFree.exit, label %47

47:                                               ; preds = %.critedge2
  tail call void @free(ptr noundef nonnull %46) #11
  br label %Vec_PtrFree.exit

Vec_PtrFree.exit:                                 ; preds = %.critedge2, %47
  tail call void @free(ptr noundef nonnull %14) #11
  %48 = getelementptr inbounds nuw i8, ptr %0, i64 8
  %49 = load ptr, ptr %48, align 8, !tbaa !33
  %50 = getelementptr i8, ptr %49, i64 4
  %.val34 = load i32, ptr %50, align 4, !tbaa !11
  %51 = icmp sgt i32 %.val34, 0
  br i1 %51, label %.lr.ph49, label %.critedge4

.lr.ph49:                                         ; preds = %Vec_PtrFree.exit
  %52 = getelementptr i8, ptr %49, i64 8
  %.val37 = load ptr, ptr %52, align 8, !tbaa !14
  %wide.trip.count = zext nneg i32 %.val34 to i64
  br label %53

53:                                               ; preds = %.lr.ph49, %53
  %indvars.iv54 = phi i64 [ 0, %.lr.ph49 ], [ %indvars.iv.next55, %53 ]
  %.03147 = phi i32 [ 0, %.lr.ph49 ], [ %63, %53 ]
  %54 = getelementptr inbounds nuw ptr, ptr %.val37, i64 %indvars.iv54
  %55 = load ptr, ptr %54, align 8, !tbaa !15
  %56 = getelementptr i8, ptr %55, i64 16
  %.val = load ptr, ptr %56, align 8, !tbaa !3
  %57 = ptrtoint ptr %.val to i64
  %58 = and i64 %57, -2
  %59 = inttoptr i64 %58 to ptr
  %60 = load ptr, ptr %59, align 8, !tbaa !29
  %61 = ptrtoint ptr %60 to i64
  %62 = trunc i64 %61 to i32
  %63 = tail call noundef i32 @llvm.smax.i32(i32 %.03147, i32 %62)
  %indvars.iv.next55 = add nuw nsw i64 %indvars.iv54, 1
  %exitcond.not = icmp eq i64 %indvars.iv.next55, %wide.trip.count
  br i1 %exitcond.not, label %.critedge4, label %53, !llvm.loop !34

.critedge4:                                       ; preds = %53, %Vec_PtrFree.exit
  %.031.lcssa = phi i32 [ 0, %Vec_PtrFree.exit ], [ %63, %53 ]
  ret i32 %.031.lcssa
}